target datalayout = "e-m:e-p270:32:32-p271:32:32-p272:64:64-i64:64-i128:128-f80:128-n8:16:32:64-S128"
target triple = "x86_64-unknown-linux-gnu"

%"class.icu_75::UObject" = type { ptr }
%"class.icu_75::LocalPointer" = type { %"class.icu_75::LocalPointerBase" }
%"class.icu_75::LocalPointerBase" = type { ptr }
%"class.icu_75::Locale" = type <{ %"class.icu_75::UObject", [12 x i8], [6 x i8], [4 x i8], [2 x i8], i32, [4 x i8], ptr, [157 x i8], [3 x i8], ptr, i8, [7 x i8] }>

@.str = private unnamed_addr constant [9 x i8] c"calendar\00", align 1
@.str.1 = private unnamed_addr constant [10 x i8] c"gregorian\00", align 1

; Function Attrs: mustprogress nounwind uwtable
define linkonce_odr void @_ZN6icu_7516LocalPointerBaseINS_8TimeZoneEED2Ev(ptr noundef nonnull align 8 dereferenceable(8) %this) unnamed_addr #0 comdat align 2 {
entry:
  %this.addr = alloca ptr, align 8
  store ptr %this, ptr %this.addr, align 8
  ret void
}

; Function Attrs: mustprogress nounwind uwtable
define internal noundef signext i8 @_ZL9U_SUCCESS10UErrorCode(i32 noundef %code) #0 {
entry:
  %code.addr = alloca i32, align 4
  store i32 %code, ptr %code.addr, align 4
  %0 = load i32, ptr %code.addr, align 4
  %cmp = icmp sle i32 %0, 0
  %conv = zext i1 %cmp to i8
  ret i8 %conv
}

; Function Attrs: mustprogress nounwind uwtable
define linkonce_odr void @_ZN6icu_7516LocalPointerBaseINS_8TimeZoneEEC2EPS1_(ptr noundef nonnull align 8 dereferenceable(8) %this, ptr noundef %p) unnamed_addr #0 comdat align 2 {
entry:
  %this.addr = alloca ptr, align 8
  %p.addr = alloca ptr, align 8
  store ptr %this, ptr %this.addr, align 8
  store ptr %p, ptr %p.addr, align 8
  %this1 = load ptr, ptr %this.addr, align 8
  %ptr = getelementptr inbounds %"class.icu_75::LocalPointerBase", ptr %this1, i32 0, i32 0
  %0 = load ptr, ptr %p.addr, align 8
  store ptr %0, ptr %ptr, align 8
  ret void
}

; Function Attrs: mustprogress nounwind uwtable
define linkonce_odr void @_ZN6icu_7512LocalPointerINS_8TimeZoneEED2Ev(ptr noundef nonnull align 8 dereferenceable(8) %this) unnamed_addr #0 comdat align 2 {
entry:
  %this.addr = alloca ptr, align 8
  store ptr %this, ptr %this.addr, align 8
  %this1 = load ptr, ptr %this.addr, align 8
  %ptr = getelementptr inbounds %"class.icu_75::LocalPointerBase", ptr %this1, i32 0, i32 0
  %0 = load ptr, ptr %ptr, align 8
  %isnull = icmp eq ptr %0, null
  br i1 %isnull, label %delete.end, label %delete.notnull

delete.notnull:                                   ; preds = %entry
  %vtable = load ptr, ptr %0, align 8
  %vfn = getelementptr inbounds ptr, ptr %vtable, i64 1
  %1 = load ptr, ptr %vfn, align 8
  call void %1(ptr noundef nonnull align 8 dereferenceable(72) %0) #9
  br label %delete.end

delete.end:                                       ; preds = %delete.notnull, %entry
  call void @_ZN6icu_7516LocalPointerBaseINS_8TimeZoneEED2Ev(ptr noundef nonnull align 8 dereferenceable(8) %this1) #9
  ret void
}

; Function Attrs: mustprogress nounwind uwtable
define linkonce_odr noundef ptr @_ZN6icu_7516LocalPointerBaseINS_8TimeZoneEE6orphanEv(ptr noundef nonnull align 8 dereferenceable(8) %this) #0 comdat align 2 {
entry:
  %this.addr = alloca ptr, align 8
  %p = alloca ptr, align 8
  store ptr %this, ptr %this.addr, align 8
  %this1 = load ptr, ptr %this.addr, align 8
  %ptr = getelementptr inbounds %"class.icu_75::LocalPointerBase", ptr %this1, i32 0, i32 0
  %0 = load ptr, ptr %ptr, align 8
  store ptr %0, ptr %p, align 8
  %ptr2 = getelementptr inbounds %"class.icu_75::LocalPointerBase", ptr %this1, i32 0, i32 0
  store ptr null, ptr %ptr2, align 8
  %1 = load ptr, ptr %p, align 8
  ret ptr %1
}

; Function Attrs: mustprogress uwtable
define linkonce_odr void @_ZN6icu_7512LocalPointerINS_8TimeZoneEEC2EPS1_R10UErrorCode(ptr noundef nonnull align 8 dereferenceable(8) %this, ptr noundef %p, ptr noundef nonnull align 4 dereferenceable(4) %errorCode) unnamed_addr #1 comdat align 2 {
entry:
  %this.addr = alloca ptr, align 8
  %p.addr = alloca ptr, align 8
  %errorCode.addr = alloca ptr, align 8
  store ptr %this, ptr %this.addr, align 8
  store ptr %p, ptr %p.addr, align 8
  store ptr %errorCode, ptr %errorCode.addr, align 8
  %this1 = load ptr, ptr %this.addr, align 8
  %0 = load ptr, ptr %p.addr, align 8
  call void @_ZN6icu_7516LocalPointerBaseINS_8TimeZoneEEC2EPS1_(ptr noundef nonnull align 8 dereferenceable(8) %this1, ptr noundef %0)
  %1 = load ptr, ptr %p.addr, align 8
  %cmp = icmp eq ptr %1, null
  br i1 %cmp, label %land.lhs.true, label %if.end

land.lhs.true:                                    ; preds = %entry
  %2 = load ptr, ptr %errorCode.addr, align 8
  %3 = load i32, ptr %2, align 4
  %call = call noundef signext i8 @_ZL9U_SUCCESS10UErrorCode(i32 noundef %3)
  %tobool = icmp ne i8 %call, 0
  br i1 %tobool, label %if.then, label %if.end

if.then:                                          ; preds = %land.lhs.true
  %4 = load ptr, ptr %errorCode.addr, align 8
  store i32 7, ptr %4, align 4
  br label %if.end

if.end:                                           ; preds = %if.then, %land.lhs.true, %entry
  ret void
}

; Function Attrs: mustprogress nounwind uwtable
define internal noundef signext i8 @_ZL9U_FAILURE10UErrorCode(i32 noundef %code) #0 {
entry:
  %code.addr = alloca i32, align 4
  store i32 %code, ptr %code.addr, align 4
  %0 = load i32, ptr %code.addr, align 4
  %cmp = icmp sgt i32 %0, 0
  %conv = zext i1 %cmp to i8
  ret i8 %conv
}

; Function Attrs: mustprogress uwtable
define ptr @ucal_open_75(ptr noundef %zoneID, i32 noundef %len, ptr noundef %locale, i32 noundef %caltype, ptr noundef %status) #1 personality ptr @__gxx_personality_v0 {
entry:
  %retval = alloca ptr, align 8
  %zoneID.addr = alloca ptr, align 8
  %len.addr = alloca i32, align 4
  %locale.addr = alloca ptr, align 8
  %caltype.addr = alloca i32, align 4
  %status.addr = alloca ptr, align 8
  %zone = alloca %"class.icu_75::LocalPointer", align 8
  %exn.slot = alloca ptr, align 8
  %ehselector.slot = alloca i32, align 4
  %cleanup.dest.slot = alloca i32, align 4
  %localeBuf = alloca [258 x i8], align 16
  %localeLength = alloca i32, align 4
  %ref.tmp = alloca %"class.icu_75::Locale", align 8
  %ref.tmp37 = alloca %"class.icu_75::Locale", align 8
  store ptr %zoneID, ptr %zoneID.addr, align 8
  store i32 %len, ptr %len.addr, align 4
  store ptr %locale, ptr %locale.addr, align 8
  store i32 %caltype, ptr %caltype.addr, align 4
  store ptr %status, ptr %status.addr, align 8
  %0 = load ptr, ptr %status.addr, align 8
  %1 = load i32, ptr %0, align 4
  %call = call noundef signext i8 @_ZL9U_FAILURE10UErrorCode(i32 noundef %1)
  %tobool = icmp ne i8 %call, 0
  br i1 %tobool, label %if.then, label %if.end

if.then:                                          ; preds = %entry
  store ptr null, ptr %retval, align 8
  br label %return

if.end:                                           ; preds = %entry
  %2 = load ptr, ptr %zoneID.addr, align 8
  %cmp = icmp eq ptr %2, null
  br i1 %cmp, label %cond.true, label %cond.false

cond.true:                                        ; preds = %if.end
  %call1 = call noundef ptr @_ZN6icu_758TimeZone13createDefaultEv()
  br label %cond.end

cond.false:                                       ; preds = %if.end
  %3 = load ptr, ptr %zoneID.addr, align 8
  %4 = load i32, ptr %len.addr, align 4
  %5 = load ptr, ptr %status.addr, align 8
  %call2 = call noundef ptr @_ZL15_createTimeZonePKDsiP10UErrorCode(ptr noundef %3, i32 noundef %4, ptr noundef %5)
  br label %cond.end

cond.end:                                         ; preds = %cond.false, %cond.true
  %cond = phi ptr [ %call1, %cond.true ], [ %call2, %cond.false ]
  %6 = load ptr, ptr %status.addr, align 8
  call void @_ZN6icu_7512LocalPointerINS_8TimeZoneEEC2EPS1_R10UErrorCode(ptr noundef nonnull align 8 dereferenceable(8) %zone, ptr noundef %cond, ptr noundef nonnull align 4 dereferenceable(4) %6)
  %7 = load ptr, ptr %status.addr, align 8
  %8 = load i32, ptr %7, align 4
  %call3 = invoke noundef signext i8 @_ZL9U_FAILURE10UErrorCode(i32 noundef %8)
          to label %invoke.cont unwind label %lpad

invoke.cont:                                      ; preds = %cond.end
  %tobool4 = icmp ne i8 %call3, 0
  br i1 %tobool4, label %if.then5, label %if.end6

if.then5:                                         ; preds = %invoke.cont
  store ptr null, ptr %retval, align 8
  store i32 1, ptr %cleanup.dest.slot, align 4
  br label %cleanup

lpad:                                             ; preds = %invoke.cont35, %if.end34, %invoke.cont27, %if.end26, %invoke.cont20, %if.end17, %if.then10, %cond.end
  %9 = landingpad { ptr, i32 }
          cleanup
  %10 = extractvalue { ptr, i32 } %9, 0
  store ptr %10, ptr %exn.slot, align 8
  %11 = extractvalue { ptr, i32 } %9, 1
  store i32 %11, ptr %ehselector.slot, align 4
  br label %ehcleanup

if.end6:                                          ; preds = %invoke.cont
  %12 = load i32, ptr %caltype.addr, align 4
  %cmp7 = icmp eq i32 %12, 1
  br i1 %cmp7, label %if.then8, label %if.end34

if.then8:                                         ; preds = %if.end6
  %13 = load ptr, ptr %locale.addr, align 8
  %cmp9 = icmp eq ptr %13, null
  br i1 %cmp9, label %if.then10, label %if.end13

if.then10:                                        ; preds = %if.then8
  %call12 = invoke ptr @uloc_getDefault_75()
          to label %invoke.cont11 unwind label %lpad

invoke.cont11:                                    ; preds = %if.then10
  store ptr %call12, ptr %locale.addr, align 8
  br label %if.end13

if.end13:                                         ; preds = %invoke.cont11, %if.then8
  %14 = load ptr, ptr %locale.addr, align 8
  %call14 = call i64 @strlen(ptr noundef %14) #7
  %conv = trunc i64 %call14 to i32
  store i32 %conv, ptr %localeLength, align 4
  %15 = load i32, ptr %localeLength, align 4
  %cmp15 = icmp sge i32 %15, 258
  br i1 %cmp15, label %if.then16, label %if.end17

if.then16:                                        ; preds = %if.end13
  %16 = load ptr, ptr %status.addr, align 8
  store i32 1, ptr %16, align 4
  store ptr null, ptr %retval, align 8
  store i32 1, ptr %cleanup.dest.slot, align 4
  br label %cleanup

if.end17:                                         ; preds = %if.end13
  %arraydecay = getelementptr inbounds [258 x i8], ptr %localeBuf, i64 0, i64 0
  %17 = load ptr, ptr %locale.addr, align 8
  %call18 = call ptr @strcpy(ptr noundef %arraydecay, ptr noundef %17) #9
  %arraydecay19 = getelementptr inbounds [258 x i8], ptr %localeBuf, i64 0, i64 0
  %18 = load ptr, ptr %status.addr, align 8
  %call21 = invoke i32 @uloc_setKeywordValue_75(ptr noundef @.str, ptr noundef @.str.1, ptr noundef %arraydecay19, i32 noundef 258, ptr noundef %18)
          to label %invoke.cont20 unwind label %lpad

invoke.cont20:                                    ; preds = %if.end17
  %19 = load ptr, ptr %status.addr, align 8
  %20 = load i32, ptr %19, align 4
  %call23 = invoke noundef signext i8 @_ZL9U_FAILURE10UErrorCode(i32 noundef %20)
          to label %invoke.cont22 unwind label %lpad

invoke.cont22:                                    ; preds = %invoke.cont20
  %tobool24 = icmp ne i8 %call23, 0
  br i1 %tobool24, label %if.then25, label %if.end26

if.then25:                                        ; preds = %invoke.cont22
  store ptr null, ptr %retval, align 8
  store i32 1, ptr %cleanup.dest.slot, align 4
  br label %cleanup

if.end26:                                         ; preds = %invoke.cont22
  %call28 = invoke noundef ptr @_ZN6icu_7516LocalPointerBaseINS_8TimeZoneEE6orphanEv(ptr noundef nonnull align 8 dereferenceable(8) %zone)
          to label %invoke.cont27 unwind label %lpad

invoke.cont27:                                    ; preds = %if.end26
  %arraydecay29 = getelementptr inbounds [258 x i8], ptr %localeBuf, i64 0, i64 0
  invoke void @_ZN6icu_756LocaleC1EPKcS2_S2_S2_(ptr noundef nonnull align 8 dereferenceable(217) %ref.tmp, ptr noundef %arraydecay29, ptr noundef null, ptr noundef null, ptr noundef null)
          to label %invoke.cont30 unwind label %lpad

invoke.cont30:                                    ; preds = %invoke.cont27
  %21 = load ptr, ptr %status.addr, align 8
  %call33 = invoke noundef ptr @_ZN6icu_758Calendar14createInstanceEPNS_8TimeZoneERKNS_6LocaleER10UErrorCode(ptr noundef %call28, ptr noundef nonnull align 8 dereferenceable(217) %ref.tmp, ptr noundef nonnull align 4 dereferenceable(4) %21)
          to label %invoke.cont32 unwind label %lpad31

invoke.cont32:                                    ; preds = %invoke.cont30
  store ptr %call33, ptr %retval, align 8
  call void @_ZN6icu_756LocaleD1Ev(ptr noundef nonnull align 8 dereferenceable(217) %ref.tmp) #9
  store i32 1, ptr %cleanup.dest.slot, align 4
  br label %cleanup

lpad31:                                           ; preds = %invoke.cont30
  %22 = landingpad { ptr, i32 }
          cleanup
  %23 = extractvalue { ptr, i32 } %22, 0
  store ptr %23, ptr %exn.slot, align 8
  %24 = extractvalue { ptr, i32 } %22, 1
  store i32 %24, ptr %ehselector.slot, align 4
  call void @_ZN6icu_756LocaleD1Ev(ptr noundef nonnull align 8 dereferenceable(217) %ref.tmp) #9
  br label %ehcleanup

if.end34:                                         ; preds = %if.end6
  %call36 = invoke noundef ptr @_ZN6icu_7516LocalPointerBaseINS_8TimeZoneEE6orphanEv(ptr noundef nonnull align 8 dereferenceable(8) %zone)
          to label %invoke.cont35 unwind label %lpad

invoke.cont35:                                    ; preds = %if.end34
  %25 = load ptr, ptr %locale.addr, align 8
  invoke void @_ZN6icu_756LocaleC1EPKcS2_S2_S2_(ptr noundef nonnull align 8 dereferenceable(217) %ref.tmp37, ptr noundef %25, ptr noundef null, ptr noundef null, ptr noundef null)
          to label %invoke.cont38 unwind label %lpad

invoke.cont38:                                    ; preds = %invoke.cont35
  %26 = load ptr, ptr %status.addr, align 8
  %call41 = invoke noundef ptr @_ZN6icu_758Calendar14createInstanceEPNS_8TimeZoneERKNS_6LocaleER10UErrorCode(ptr noundef %call36, ptr noundef nonnull align 8 dereferenceable(217) %ref.tmp37, ptr noundef nonnull align 4 dereferenceable(4) %26)
          to label %invoke.cont40 unwind label %lpad39

invoke.cont40:                                    ; preds = %invoke.cont38
  store ptr %call41, ptr %retval, align 8
  call void @_ZN6icu_756LocaleD1Ev(ptr noundef nonnull align 8 dereferenceable(217) %ref.tmp37) #9
  store i32 1, ptr %cleanup.dest.slot, align 4
  br label %cleanup

lpad39:                                           ; preds = %invoke.cont38
  %27 = landingpad { ptr, i32 }
          cleanup
  %28 = extractvalue { ptr, i32 } %27, 0
  store ptr %28, ptr %exn.slot, align 8
  %29 = extractvalue { ptr, i32 } %27, 1
  store i32 %29, ptr %ehselector.slot, align 4
  call void @_ZN6icu_756LocaleD1Ev(ptr noundef nonnull align 8 dereferenceable(217) %ref.tmp37) #9
  br label %ehcleanup

cleanup:                                          ; preds = %invoke.cont40, %invoke.cont32, %if.then25, %if.then16, %if.then5
  call void @_ZN6icu_7512LocalPointerINS_8TimeZoneEED2Ev(ptr noundef nonnull align 8 dereferenceable(8) %zone) #9
  br label %return

ehcleanup:                                        ; preds = %lpad39, %lpad31, %lpad
  call void @_ZN6icu_7512LocalPointerINS_8TimeZoneEED2Ev(ptr noundef nonnull align 8 dereferenceable(8) %zone) #9
  br label %eh.resume

return:                                           ; preds = %cleanup, %if.then
  %30 = load ptr, ptr %retval, align 8
  ret ptr %30

eh.resume:                                        ; preds = %ehcleanup
  %exn = load ptr, ptr %exn.slot, align 8
  %sel = load i32, ptr %ehselector.slot, align 4
  %lpad.val = insertvalue { ptr, i32 } poison, ptr %exn, 0
  %lpad.val42 = insertvalue { ptr, i32 } %lpad.val, i32 %sel, 1
  resume { ptr, i32 } %lpad.val42
}