; Function Attrs: mustprogress uwtable
define noundef ptr @ucal_open_75(ptr noundef %zoneID, i32 noundef %len, ptr noundef %locale, i32 noundef %caltype, ptr noundef %status) local_unnamed_addr #1 personality ptr @__gxx_personality_v0 {
entry:
  %localeBuf = alloca [258 x i8], align 16
  %ref.tmp = alloca %"class.icu_75::Locale", align 8
  %ref.tmp37 = alloca %"class.icu_75::Locale", align 8
  %0 = load i32, ptr %status, align 4
  %cmp.i = icmp slt i32 %0, 1
  br i1 %cmp.i, label %if.end, label %return

if.end:                                           ; preds = %entry
  %cmp = icmp eq ptr %zoneID, null
  br i1 %cmp, label %cond.true, label %cond.false

cond.true:                                        ; preds = %if.end
  %call1 = tail call noundef ptr @_ZN6icu_758TimeZone13createDefaultEv()
  br label %cond.end

cond.false:                                       ; preds = %if.end
  %call2 = tail call fastcc noundef ptr @_ZL15_createTimeZonePKDsiP10UErrorCode(ptr noundef nonnull %zoneID, i32 noundef %len, ptr noundef nonnull %status)
  br label %cond.end

cond.end:                                         ; preds = %cond.false, %cond.true
  %cond = phi ptr [ %call1, %cond.true ], [ %call2, %cond.false ]
  %cmp.i14 = icmp ne ptr %cond, null
  %1 = load i32, ptr %status, align 4
  %cmp.i.i = icmp sgt i32 %1, 0
  %or.cond.i = select i1 %cmp.i14, i1 true, i1 %cmp.i.i
  br i1 %or.cond.i, label %_ZN6icu_7512LocalPointerINS_8TimeZoneEEC2EPS1_R10UErrorCode.exit, label %cleanup.thread

cleanup.thread:                                   ; preds = %cond.end
  store i32 7, ptr %status, align 4
  br label %return

_ZN6icu_7512LocalPointerINS_8TimeZoneEEC2EPS1_R10UErrorCode.exit: ; preds = %cond.end
  %cmp.i15 = icmp slt i32 %1, 1
  br i1 %cmp.i15, label %if.end6, label %cleanup

if.end6:                                          ; preds = %_ZN6icu_7512LocalPointerINS_8TimeZoneEEC2EPS1_R10UErrorCode.exit
  %cmp7 = icmp eq i32 %caltype, 1
  br i1 %cmp7, label %if.then8, label %if.end34

if.then8:                                         ; preds = %if.end6
  %cmp9 = icmp eq ptr %locale, null
  br i1 %cmp9, label %if.then10, label %if.end13

if.then10:                                        ; preds = %if.then8
  %call12 = invoke ptr @uloc_getDefault_75()
          to label %if.end13 unwind label %ehcleanup

if.end13:                                         ; preds = %if.then10, %if.then8
  %locale.addr.0 = phi ptr [ %locale, %if.then8 ], [ %call12, %if.then10 ]
  %call14 = tail call i64 @strlen(ptr noundef nonnull dereferenceable(1) %locale.addr.0) #14
  %conv = trunc i64 %call14 to i32
  %cmp15 = icmp sgt i32 %conv, 257
  br i1 %cmp15, label %if.then16, label %if.end17

if.then16:                                        ; preds = %if.end13
  store i32 1, ptr %status, align 4
  br label %cleanup

if.end17:                                         ; preds = %if.end13
  %call18 = call ptr @strcpy(ptr noundef nonnull dereferenceable(1) %localeBuf, ptr noundef nonnull dereferenceable(1) %locale.addr.0) #11
  %call21 = invoke i32 @uloc_setKeywordValue_75(ptr noundef nonnull @.str, ptr noundef nonnull @.str.1, ptr noundef nonnull %localeBuf, i32 noundef 258, ptr noundef nonnull %status)
          to label %invoke.cont20 unwind label %ehcleanup

invoke.cont20:                                    ; preds = %if.end17
  %2 = load i32, ptr %status, align 4
  %cmp.i17 = icmp slt i32 %2, 1
  br i1 %cmp.i17, label %if.end26, label %cleanup

if.end26:                                         ; preds = %invoke.cont20
  call void @_ZN6icu_756LocaleC1EPKcS2_S2_S2_(ptr noundef nonnull align 8 dereferenceable(217) %ref.tmp, ptr noundef nonnull %localeBuf, ptr noundef null, ptr noundef null, ptr noundef null)
  %call33 = invoke noundef ptr @_ZN6icu_758Calendar14createInstanceEPNS_8TimeZoneERKNS_6LocaleER10UErrorCode(ptr noundef %cond, ptr noundef nonnull align 8 dereferenceable(217) %ref.tmp, ptr noundef nonnull align 4 dereferenceable(4) %status)
          to label %invoke.cont32 unwind label %lpad31

invoke.cont32:                                    ; preds = %if.end26
  call void @_ZN6icu_756LocaleD1Ev(ptr noundef nonnull align 8 dereferenceable(217) %ref.tmp) #11
  br label %return

lpad31:                                           ; preds = %if.end26
  %3 = landingpad { ptr, i32 }
          cleanup
  call void @_ZN6icu_756LocaleD1Ev(ptr noundef nonnull align 8 dereferenceable(217) %ref.tmp) #11
  br label %_ZN6icu_7512LocalPointerINS_8TimeZoneEED2Ev.exit23

if.end34:                                         ; preds = %if.end6
  call void @_ZN6icu_756LocaleC1EPKcS2_S2_S2_(ptr noundef nonnull align 8 dereferenceable(217) %ref.tmp37, ptr noundef %locale, ptr noundef null, ptr noundef null, ptr noundef null)
  %call41 = invoke noundef ptr @_ZN6icu_758Calendar14createInstanceEPNS_8TimeZoneERKNS_6LocaleER10UErrorCode(ptr noundef %cond, ptr noundef nonnull align 8 dereferenceable(217) %ref.tmp37, ptr noundef nonnull align 4 dereferenceable(4) %status)
          to label %invoke.cont40 unwind label %lpad39

invoke.cont40:                                    ; preds = %if.end34
  call void @_ZN6icu_756LocaleD1Ev(ptr noundef nonnull align 8 dereferenceable(217) %ref.tmp37) #11
  br label %return

lpad39:                                           ; preds = %if.end34
  %4 = landingpad { ptr, i32 }
          cleanup
  call void @_ZN6icu_756LocaleD1Ev(ptr noundef nonnull align 8 dereferenceable(217) %ref.tmp37) #11
  br label %_ZN6icu_7512LocalPointerINS_8TimeZoneEED2Ev.exit23

cleanup:                                          ; preds = %invoke.cont20, %_ZN6icu_7512LocalPointerINS_8TimeZoneEEC2EPS1_R10UErrorCode.exit, %if.then16
  %isnull.i = icmp eq ptr %cond, null
  br i1 %isnull.i, label %return, label %delete.notnull.i

delete.notnull.i:                                 ; preds = %cleanup
  %vtable.i = load ptr, ptr %cond, align 8
  %vfn.i = getelementptr inbounds i8, ptr %vtable.i, i64 8
  %5 = load ptr, ptr %vfn.i, align 8
  call void %5(ptr noundef nonnull align 8 dereferenceable(72) %cond) #11
  br label %return

ehcleanup:                                        ; preds = %if.then10, %if.end17
  %lpad.thr_comm.split-lp = landingpad { ptr, i32 }
          cleanup
  %isnull.i19 = icmp eq ptr %cond, null
  br i1 %isnull.i19, label %_ZN6icu_7512LocalPointerINS_8TimeZoneEED2Ev.exit23, label %delete.notnull.i20

delete.notnull.i20:                               ; preds = %ehcleanup
  %vtable.i21 = load ptr, ptr %cond, align 8
  %vfn.i22 = getelementptr inbounds i8, ptr %vtable.i21, i64 8
  %6 = load ptr, ptr %vfn.i22, align 8
  call void %6(ptr noundef nonnull align 8 dereferenceable(72) %cond) #11
  br label %_ZN6icu_7512LocalPointerINS_8TimeZoneEED2Ev.exit23

_ZN6icu_7512LocalPointerINS_8TimeZoneEED2Ev.exit23: ; preds = %lpad39, %lpad31, %ehcleanup, %delete.notnull.i20
  %.pn34 = phi { ptr, i32 } [ %lpad.thr_comm.split-lp, %ehcleanup ], [ %lpad.thr_comm.split-lp, %delete.notnull.i20 ], [ %4, %lpad39 ], [ %3, %lpad31 ]
  resume { ptr, i32 } %.pn34

return:                                           ; preds = %cleanup.thread, %invoke.cont40, %invoke.cont32, %delete.notnull.i, %cleanup, %entry
  %retval.1 = phi ptr [ null, %entry ], [ null, %cleanup ], [ null, %delete.notnull.i ], [ %call41, %invoke.cont40 ], [ %call33, %invoke.cont32 ], [ null, %cleanup.thread ]
  ret ptr %retval.1
}